; Function Attrs: nounwind uwtable
define internal fastcc range(i32 -29952, 1) i32 @ssl_parse_session_ticket_ext(ptr noundef %0, i64 noundef range(i64 0, 65536) %1) unnamed_addr #0 {
  %3 = load ptr, ptr %0, align 8, !tbaa !19
  %4 = getelementptr i8, ptr %3, i64 17
  %.val = load i8, ptr %4, align 1, !tbaa !41
  %5 = and i8 %.val, 1
  %6 = icmp eq i8 %5, 0
  %7 = icmp ne i64 %1, 0
  %or.cond = or i1 %7, %6
  br i1 %or.cond, label %8, label %10

8:                                                ; preds = %2
  tail call void (ptr, i32, ptr, i32, ptr, ...) @mbedtls_debug_print_msg(ptr noundef nonnull %0, i32 noundef 1, ptr noundef nonnull @.str, i32 noundef 795, ptr noundef nonnull @.str.72) #14
  %9 = tail call i32 @mbedtls_ssl_send_alert_message(ptr noundef nonnull %0, i8 noundef zeroext 2, i8 noundef zeroext 110) #14
  br label %14

10:                                               ; preds = %2
  %11 = getelementptr inbounds nuw i8, ptr %0, i64 112
  %12 = load ptr, ptr %11, align 8, !tbaa !44
  %13 = getelementptr inbounds nuw i8, ptr %12, i64 4
  store i8 1, ptr %13, align 4, !tbaa !45
  br label %14

14:                                               ; preds = %10, %8
  %.0 = phi i32 [ -29952, %8 ], [ 0, %10 ]
  ret i32 %.0
}